(dp1
S'overlaps'
p2
(lp3
I16
aI16
asS'scale_indices'
p4
(lp5
I-2
aI-1
asS'deploy_proto'
p6
S'/home/nathan/histo-seg/semantic-pca/code/segnet_basic_deploy.prototxt'
p7
sS'rotate'
p8
I01
sS'do_post_processing'
p9
I00
sS'output_filenames'
p10
(lp11
S'probability'
p12
aS'argmaxRGB'
p13
aS'argmax'
p14
aS'overlay'
p15
asS'cnnlayer'
p16
S'prob'
p17
sS'title'
p18
S'dev'
p19
sS'ramdisk'
p20
S'/dev/shm'
p21
sS'scales'
p22
(lp23
S'10x'
p24
aS'5x'
p25
asS'scale_weights'
p26
(lp27
I2
aI1
asS'prefetch'
p28
I1000
sS'colors'
p29
cnumpy.core.multiarray
_reconstruct
p30
(cnumpy
ndarray
p31
(I0
tS'b'
tRp32
(I1
(I4
I3
tcnumpy
dtype
p33
(S'i8'
I0
I1
tRp34
(I3
S'<'
NNNI-1
I-1
I0
tbI00
S'\xeb\x00\x00\x00\x00\x00\x00\x00(\x00\x00\x00\x00\x00\x00\x00(\x00\x00\x00\x00\x00\x00\x00(\x00\x00\x00\x00\x00\x00\x00\xeb\x00\x00\x00\x00\x00\x00\x00(\x00\x00\x00\x00\x00\x00\x00(\x00\x00\x00\x00\x00\x00\x00(\x00\x00\x00\x00\x00\x00\x00\xf5\x00\x00\x00\x00\x00\x00\x00\x00\x00\x00\x00\x00\x00\x00\x00\x00\x00\x00\x00\x00\x00\x00\x00\x00\x00\x00\x00\x00\x00\x00\x00'
tbsS'replace_value'
p35
I3
sS'weights'
p36
(lp37
S'/home/nathan/histo-seg/semantic-pca/weights/xval_set_0_512/batchnorm_segnet_basic_pca_20170712.SGD_iter_65000.caffemodel'
p38
aS'/home/nathan/histo-seg/semantic-pca/weights/xval_set_0_1024/batchnorm_segnet_basic_pca_20170712.SGD_iter_65000.caffemodel'
p39
asS'output_dir'
p40
S'/home/nathan/histo-seg/semantic-pca/analysis_wsi'
p41
sS'n_classes'
p42
I4
sS'gpumode'
p43
I01
sS'proc_size'
p44
I256
sS'class_names'
p45
(lp46
S'LowGrade'
p47
aS'HighGrade'
p48
aS'Benign'
p49
aS'Stroma'
p50
asS'do_normalize'
p51
I01
s.