(dp1
S'overlaps'
p2
(lp3
I16
aI16
asS'scale_indices'
p4
(lp5
I-2
aI-1
asS'deploy_proto'
p6
S'/home/nathan/histo-seg/semantic-pca/code/segnet_basic_crfrnn_deploy.prototxt'
p7
sS'gpumode'
p8
I01
sS'output_filenames'
p9
(lp10
S'probability'
p11
aS'argmaxRGB'
p12
aS'argmax'
p13
aS'overlay'
p14
asS'cnnlayer'
p15
S'prob'
p16
sS'title'
p17
S'dev'
p18
sS'ramdisk'
p19
S'/dev/shm'
p20
sS'scales'
p21
(lp22
S'10x'
p23
aS'5x'
p24
asS'scale_weights'
p25
(lp26
I2
aI1
asS'prefetch'
p27
I1000
sS'colors'
p28
cnumpy.core.multiarray
_reconstruct
p29
(cnumpy
ndarray
p30
(I0
tS'b'
tRp31
(I1
(I4
I3
tcnumpy
dtype
p32
(S'i8'
I0
I1
tRp33
(I3
S'<'
NNNI-1
I-1
I0
tbI00
S'\xeb\x00\x00\x00\x00\x00\x00\x00(\x00\x00\x00\x00\x00\x00\x00(\x00\x00\x00\x00\x00\x00\x00(\x00\x00\x00\x00\x00\x00\x00\xeb\x00\x00\x00\x00\x00\x00\x00(\x00\x00\x00\x00\x00\x00\x00(\x00\x00\x00\x00\x00\x00\x00(\x00\x00\x00\x00\x00\x00\x00\xf5\x00\x00\x00\x00\x00\x00\x00\x00\x00\x00\x00\x00\x00\x00\x00\x00\x00\x00\x00\x00\x00\x00\x00\x00\x00\x00\x00\x00\x00\x00\x00'
tbsS'replace_value'
p34
I3
sS'weights'
p35
(lp36
S'/home/nathan/histo-seg/semantic-pca/weights/xval_set_0_512/batchnorm_segnet_basic_crf_pca_20170712.SGD_iter_25000.caffemodel'
p37
aS'/home/nathan/histo-seg/semantic-pca/weights/xval_set_0_1024/batchnorm_segnet_basic_crf_pca_20170712.SGD_iter_25000.caffemodel'
p38
asS'output_dir'
p39
S'/home/nathan/histo-seg/semantic-pca/analysis_wsi'
p40
sS'n_classes'
p41
I4
sS'proc_size'
p42
I256
sS'class_names'
p43
(lp44
S'LowGrade'
p45
aS'HighGrade'
p46
aS'Benign'
p47
aS'Stroma'
p48
asS'do_normalize'
p49
I01
s.