(dp1
S'overlaps'
p2
(lp3
I32
aI32
asS'scale_indices'
p4
(lp5
I-2
aI-1
asS'deploy_proto'
p6
S'/home/nathan/histo-seg/semantic-pca/code/segnet_basic_deploy.prototxt'
p7
sS'weights'
p8
(lp9
S'/home/nathan/histo-seg/semantic-pca/weights/xval_set_0_512/batchnorm_segnet_basic_pca_20170712.SGD_iter_65000.caffemodel'
p10
aS'/home/nathan/histo-seg/semantic-pca/weights/xval_set_0_1024/batchnorm_segnet_basic_pca_20170712.SGD_iter_65000.caffemodel'
p11
asS'output_dir'
p12
S'/home/nathan/histo-seg/pca-dev'
p13
sS'n_classes'
p14
I4
sS'scales'
p15
(lp16
S'10x'
p17
aS'5x'
p18
asS'title'
p19
S'dev'
p20
sS'proc_size'
p21
I256
sS'class_names'
p22
(lp23
S'LowGrade'
p24
aS'HighGrade'
p25
aS'Benign'
p26
aS'Stroma'
p27
as.