(dp1
S'overlaps'
p2
(lp3
I16
aI16
asS'scale_indices'
p4
(lp5
I-2
aI-1
asS'deploy_proto'
p6
S'/home/nathan/histo-seg/semantic-pca/code/segnet_basic_deploy.prototxt'
p7
sS'gpumode'
p8
I01
sS'output_filenames'
p9
(lp10
S'probability'
p11
aS'argmax'
p12
aS'overlay'
p13
asS'cnnlayer'
p14
S'prob'
p15
sS'title'
p16
S'dev'
p17
sS'ramdisk'
p18
S'/dev/shm'
p19
sS'scales'
p20
(lp21
S'10x'
p22
aS'5x'
p23
asS'scale_weights'
p24
(lp25
I2
aI1
asS'prefetch'
p26
I1000
sS'colors'
p27
cnumpy.core.multiarray
_reconstruct
p28
(cnumpy
ndarray
p29
(I0
tS'b'
tRp30
(I1
(I4
I3
tcnumpy
dtype
p31
(S'i8'
I0
I1
tRp32
(I3
S'<'
NNNI-1
I-1
I0
tbI00
S'\xeb\x00\x00\x00\x00\x00\x00\x00(\x00\x00\x00\x00\x00\x00\x00(\x00\x00\x00\x00\x00\x00\x00(\x00\x00\x00\x00\x00\x00\x00\xeb\x00\x00\x00\x00\x00\x00\x00(\x00\x00\x00\x00\x00\x00\x00(\x00\x00\x00\x00\x00\x00\x00(\x00\x00\x00\x00\x00\x00\x00\xf5\x00\x00\x00\x00\x00\x00\x00\x00\x00\x00\x00\x00\x00\x00\x00\x00\x00\x00\x00\x00\x00\x00\x00\x00\x00\x00\x00\x00\x00\x00\x00'
tbsS'replace_value'
p33
I3
sS'weights'
p34
(lp35
S'/home/nathan/histo-seg/semantic-pca/weights/xval_set_0_512/batchnorm_segnet_basic_pca_20170712.SGD_iter_65000.caffemodel'
p36
aS'/home/nathan/histo-seg/semantic-pca/weights/xval_set_0_1024/batchnorm_segnet_basic_pca_20170712.SGD_iter_65000.caffemodel'
p37
asS'output_dir'
p38
S'/home/nathan/histo-seg/semantic-pca/analysis_wsi'
p39
sS'n_classes'
p40
I4
sS'proc_size'
p41
I256
sS'class_names'
p42
(lp43
S'LowGrade'
p44
aS'HighGrade'
p45
aS'Benign'
p46
aS'Stroma'
p47
asS'do_normalize'
p48
I01
s.