(dp1
S'ramdisk'
p2
S'/dev/shm'
p3
sS'scales'
p4
(lp5
S'10x'
p6
aS'5x'
p7
asS'colors'
p8
cnumpy.core.multiarray
_reconstruct
p9
(cnumpy
ndarray
p10
(I0
tS'b'
tRp11
(I1
(I4
I3
tcnumpy
dtype
p12
(S'i8'
I0
I1
tRp13
(I3
S'<'
NNNI-1
I-1
I0
tbI00
S'\xeb\x00\x00\x00\x00\x00\x00\x00(\x00\x00\x00\x00\x00\x00\x00(\x00\x00\x00\x00\x00\x00\x00(\x00\x00\x00\x00\x00\x00\x00\xeb\x00\x00\x00\x00\x00\x00\x00(\x00\x00\x00\x00\x00\x00\x00(\x00\x00\x00\x00\x00\x00\x00(\x00\x00\x00\x00\x00\x00\x00\xf5\x00\x00\x00\x00\x00\x00\x00\x00\x00\x00\x00\x00\x00\x00\x00\x00\x00\x00\x00\x00\x00\x00\x00\x00\x00\x00\x00\x00\x00\x00\x00'
tbsS'do_normalize'
p14
I01
sS'output_filenames'
p15
(lp16
S'probability'
p17
aS'argmax'
p18
aS'argmaxRGB'
p19
aS'overlay'
p20
asS'DEBUGGING'
p21
I00
sS'cnnlayer'
p22
S'prob'
p23
sS'title'
p24
S'dev'
p25
sS'output_dir'
p26
S'/home/nathan/histo-seg/semantic-pca/analysis_wsi/segnet_basic'
p27
sS'n_classes'
p28
I4
sS'overlaps'
p29
(lp30
I16
aI16
asS'caffe_root'
p31
S'/Users/nathaning/software/caffe-segnet-crf/python'
p32
sS'replace_value'
p33
I3
sS'proc_size'
p34
I256
sS'gpumode'
p35
I01
sS'scale_indices'
p36
(lp37
I-2
aI-1
asS'deploy_proto'
p38
S'/home/nathan/histo-seg/semantic-pca/code/segnet_basic_deploy.prototxt'
p39
sS'rotate'
p40
I01
sS'do_post_processing'
p41
I00
sS'weights'
p42
(lp43
S'/home/nathan/histo-seg/semantic-pca/weights/xval_set_0_512/batchnorm_segnet_basic_pca_20170712.SGD_iter_75000.caffemodel'
p44
aS'/home/nathan/histo-seg/semantic-pca/weights/xval_set_0_1024/batchnorm_segnet_basic_pca_20170712.SGD_iter_75000.caffemodel'
p45
asS'prefetch'
p46
I1000
sS'scale_weights'
p47
(lp48
I1
aI1
asS'class_names'
p49
(lp50
S'LowGrade'
p51
aS'HighGrade'
p52
aS'Benign'
p53
aS'Stroma'
p54
as.