(dp1
S'overlaps'
p2
(lp3
I16
aI16
asS'scale_indices'
p4
(lp5
I-2
aI-1
asS'deploy_proto'
p6
S'/home/nathan/histo-seg/semantic-pca/code/segnet_basic_deploy.prototxt'
p7
sS'gpumode'
p8
I01
sS'output_filenames'
p9
(lp10
S'probability'
p11
aS'argmax'
p12
aS'overlay'
p13
asS'cnnlayer'
p14
S'prob'
p15
sS'title'
p16
S'dev'
p17
sS'scales'
p18
(lp19
S'10x'
p20
aS'5x'
p21
asS'scale_weights'
p22
(lp23
I2
aI1
asS'prefetch'
p24
I1000
sS'colors'
p25
cnumpy.core.multiarray
_reconstruct
p26
(cnumpy
ndarray
p27
(I0
tS'b'
tRp28
(I1
(I4
I3
tcnumpy
dtype
p29
(S'i8'
I0
I1
tRp30
(I3
S'<'
NNNI-1
I-1
I0
tbI00
S'\xeb\x00\x00\x00\x00\x00\x00\x00(\x00\x00\x00\x00\x00\x00\x00(\x00\x00\x00\x00\x00\x00\x00(\x00\x00\x00\x00\x00\x00\x00\xeb\x00\x00\x00\x00\x00\x00\x00(\x00\x00\x00\x00\x00\x00\x00(\x00\x00\x00\x00\x00\x00\x00(\x00\x00\x00\x00\x00\x00\x00\xf5\x00\x00\x00\x00\x00\x00\x00\xff\x00\x00\x00\x00\x00\x00\x00\xff\x00\x00\x00\x00\x00\x00\x00\xff\x00\x00\x00\x00\x00\x00\x00'
tbsS'replace_value'
p31
I3
sS'weights'
p32
(lp33
S'/home/nathan/histo-seg/semantic-pca/weights/xval_set_0_512/batchnorm_segnet_basic_pca_20170712.SGD_iter_65000.caffemodel'
p34
aS'/home/nathan/histo-seg/semantic-pca/weights/xval_set_0_1024/batchnorm_segnet_basic_pca_20170712.SGD_iter_65000.caffemodel'
p35
asS'output_dir'
p36
S'/dev/shm/db'
p37
sS'n_classes'
p38
I4
sS'proc_size'
p39
I256
sS'class_names'
p40
(lp41
S'LowGrade'
p42
aS'HighGrade'
p43
aS'Benign'
p44
aS'Stroma'
p45
asS'do_normalize'
p46
I01
s.