(dp1
S'ramdisk'
p2
S'/dev/shm'
p3
sS'scales'
p4
(lp5
S'10x'
p6
aS'5x'
p7
asS'colors'
p8
cnumpy.core.multiarray
_reconstruct
p9
(cnumpy
ndarray
p10
(I0
tS'b'
tRp11
(I1
(I4
I3
tcnumpy
dtype
p12
(S'i8'
I0
I1
tRp13
(I3
S'<'
NNNI-1
I-1
I0
tbI00
S'\xeb\x00\x00\x00\x00\x00\x00\x00(\x00\x00\x00\x00\x00\x00\x00(\x00\x00\x00\x00\x00\x00\x00(\x00\x00\x00\x00\x00\x00\x00\xeb\x00\x00\x00\x00\x00\x00\x00(\x00\x00\x00\x00\x00\x00\x00(\x00\x00\x00\x00\x00\x00\x00(\x00\x00\x00\x00\x00\x00\x00\xf5\x00\x00\x00\x00\x00\x00\x00\x00\x00\x00\x00\x00\x00\x00\x00\x00\x00\x00\x00\x00\x00\x00\x00\x00\x00\x00\x00\x00\x00\x00\x00'
tbsS'do_normalize'
p14
I01
sS'output_filenames'
p15
(lp16
S'probability'
p17
aS'argmax'
p18
aS'argmaxRGB'
p19
aS'overlay'
p20
aS'tissue'
p21
asS'DEBUGGING'
p22
I00
sS'cnnlayer'
p23
S'prob'
p24
sS'title'
p25
S'segnet_basic_crf'
p26
sS'output_dir'
p27
S'/home/nathan/histo-seg/semantic-pca/analysis_wsi/segnet_basic_crf'
p28
sS'n_classes'
p29
I4
sS'overlaps'
p30
(lp31
I16
aI16
asS'caffe_root'
p32
S'/home/nathan/caffe-segnet-crf/python'
p33
sS'replace_value'
p34
I3
sS'proc_size'
p35
I256
sS'gpumode'
p36
I01
sS'scale_indices'
p37
(lp38
I-2
aI-1
asS'deploy_proto'
p39
S'/home/nathan/histo-seg/semantic-pca/code/segnet_basic_crfrnn_deploy.prototxt'
p40
sS'rotate'
p41
I00
sS'do_post_processing'
p42
I00
sS'weights'
p43
(lp44
S'/home/nathan/histo-seg/semantic-pca/weights/xval_set_0_512/batchnorm_segnet_basic_crf_pca_20170712.SGD_iter_25000.caffemodel'
p45
aS'/home/nathan/histo-seg/semantic-pca/weights/xval_set_0_1024/batchnorm_segnet_basic_crf_pca_20170712.SGD_iter_25000.caffemodel'
p46
asS'prefetch'
p47
I1000
sS'scale_weights'
p48
(lp49
I1
aI1
asS'class_names'
p50
(lp51
S'LowGrade'
p52
aS'HighGrade'
p53
aS'Benign'
p54
aS'Stroma'
p55
as.