(dp1
S'overlaps'
p2
(lp3
I64
aI64
asS'deploy_proto'
p4
S'/home/nathan/histo-seg/semantic-pca/code/segnet_basic_deploy.prototxt'
p5
sS'weights'
p6
(lp7
S'/home/nathan/histo-seg/semantic-pca/weights/xval_set_0_512/batchnorm_segnet_basic_pca_20170712.SGD_iter_65000.caffemodel'
p8
aS'/home/nathan/histo-seg/semantic-pca/weights/xval_set_0_1024/batchnorm_segnet_basic_pca_20170712.SGD_iter_65000.caffemodel'
p9
asS'output_dir'
p10
S'/home/nathan/histo-seg/pca-dev'
p11
sS'n_classes'
p12
I4
sS'scales'
p13
(lp14
S'10x'
p15
aS'5x'
p16
asS'title'
p17
S'dev'
p18
sS'proc_size'
p19
I256
sS'class_names'
p20
(lp21
S'LowGrade'
p22
aS'HighGrade'
p23
aS'Benign'
p24
aS'Stroma'
p25
as.